Certificate:
    Data:
        Version: 3 (0x2)
        Serial Number: 8 (0x8)
    Signature Algorithm: sha256WithRSAEncryption
        Issuer: C=US, O=arc-test, CN=localhost
        Validity
            Not Before: Jan 23 17:54:51 2023 GMT
            Not After : Jun  9 17:54:51 2050 GMT
        Subject: C=US, O=arc-test, CN=localhost
        Subject Public Key Info:
            Public Key Algorithm: rsaEncryption
                RSA Public-Key: (2048 bit)
                Modulus:
                    00:dd:61:59:0a:19:19:1a:d4:e1:f1:c0:8d:bb:c2:
                    f8:32:e5:04:55:c5:ea:f6:71:5c:d3:ad:d0:b1:c3:
                    86:73:ba:f1:01:7f:5d:45:6c:bf:0d:e6:27:c4:f0:
                    a0:f2:be:73:61:04:1f:f5:ca:3b:9d:11:c6:00:ae:
                    49:6f:7f:9c:f7:e1:21:e4:53:aa:29:71:58:fe:e8:
                    c8:6c:25:2f:0a:ef:8f:be:e8:1c:9d:76:05:4a:28:
                    e1:88:20:4b:4a:51:59:48:3c:84:05:ec:10:ae:be:
                    76:05:ee:ff:bf:54:67:02:e6:01:e8:02:b4:d0:07:
                    79:39:10:71:e6:b1:25:b5:6a:24:7c:22:ef:70:90:
                    5b:32:69:81:9d:34:82:a6:3b:fd:b5:8e:6b:8d:12:
                    e7:bd:0a:0d:61:1f:ed:16:82:30:f9:2c:93:8d:fe:
                    70:b5:4d:c4:53:0b:5e:f1:ba:4a:c5:08:ba:56:8f:
                    dd:b7:fc:13:cd:1b:d1:1c:31:00:d1:7d:49:fd:54:
                    4d:73:e8:73:1d:69:dd:98:53:fe:77:66:3f:05:a7:
                    61:1c:e4:c2:a6:b9:31:df:c5:0b:b5:78:fc:7f:42:
                    9f:0e:a6:1a:eb:59:46:be:ac:95:8a:85:ea:05:e4:
                    8a:33:00:2e:8e:d9:a4:20:4a:39:77:53:16:7c:8a:
                    9c:59
                Exponent: 65537 (0x10001)
        X509v3 extensions:
            X509v3 Basic Constraints: critical
                CA:TRUE
            X509v3 Key Usage: critical
                Certificate Sign
    Signature Algorithm: sha256WithRSAEncryption
         a5:5c:2f:be:b7:e4:a8:e7:95:7a:58:93:be:5e:3a:5a:f7:0b:
         70:ba:8e:b8:a8:dc:7c:5b:2c:c1:5b:80:f3:8f:8a:c4:2b:d2:
         ad:69:21:29:75:3a:5b:7d:bb:4f:2b:f9:27:4a:ab:d7:bd:05:
         0a:aa:50:e7:b0:2d:7f:05:2d:42:af:c1:de:aa:a1:69:b1:b4:
         78:ce:f2:78:98:97:49:c0:be:1b:5f:23:47:8d:c5:e8:c4:85:
         84:31:d0:5c:9b:12:96:43:08:ae:32:dc:9d:d4:ad:c6:6d:15:
         ad:0f:6c:ec:50:61:86:3c:b7:75:90:6b:44:d5:dd:56:c1:11:
         fe:6e:07:80:85:93:8a:34:da:e9:38:21:ac:ce:73:ce:c1:26:
         4e:94:2f:9b:82:b5:06:7a:ef:21:3a:80:79:89:c2:fd:e5:04:
         25:1c:a8:b2:28:91:1f:a1:91:b6:82:ea:ce:64:21:ef:da:0c:
         af:bf:09:5a:e2:9f:5b:f6:0f:bf:cf:91:d3:97:7f:f1:25:9b:
         8b:5f:10:16:fb:a8:92:11:13:38:cb:32:02:03:69:6f:9e:fe:
         2a:b0:56:c7:49:f3:2a:9b:c6:ee:a2:98:25:d2:a0:c0:f3:c4:
         03:99:e1:94:e3:f5:95:28:07:ec:db:31:3a:25:79:c1:45:c8:
         8a:1e:75:39
-----BEGIN CERTIFICATE-----
MIIDCDCCAfCgAwIBAgIBCDANBgkqhkiG9w0BAQsFADA0MQswCQYDVQQGEwJVUzER
MA8GA1UECgwIYXJjLXRlc3QxEjAQBgNVBAMMCWxvY2FsaG9zdDAgFw0yMzAxMjMx
NzU0NTFaGA8yMDUwMDYwOTE3NTQ1MVowNDELMAkGA1UEBhMCVVMxETAPBgNVBAoM
CGFyYy10ZXN0MRIwEAYDVQQDDAlsb2NhbGhvc3QwggEiMA0GCSqGSIb3DQEBAQUA
A4IBDwAwggEKAoIBAQDdYVkKGRka1OHxwI27wvgy5QRVxer2cVzTrdCxw4ZzuvEB
f11FbL8N5ifE8KDyvnNhBB/1yjudEcYArklvf5z34SHkU6opcVj+6MhsJS8K74++
6ByddgVKKOGIIEtKUVlIPIQF7BCuvnYF7v+/VGcC5gHoArTQB3k5EHHmsSW1aiR8
Iu9wkFsyaYGdNIKmO/21jmuNEue9Cg1hH+0WgjD5LJON/nC1TcRTC17xukrFCLpW
j923/BPNG9EcMQDRfUn9VE1z6HMdad2YU/53Zj8Fp2Ec5MKmuTHfxQu1ePx/Qp8O
phrrWUa+rJWKheoF5IozAC6O2aQgSjl3UxZ8ipxZAgMBAAGjIzAhMA8GA1UdEwEB
/wQFMAMBAf8wDgYDVR0PAQH/BAQDAgIEMA0GCSqGSIb3DQEBCwUAA4IBAQClXC++
t+So55V6WJO+Xjpa9wtwuo64qNx8WyzBW4Dzj4rEK9KtaSEpdTpbfbtPK/knSqvX
vQUKqlDnsC1/BS1Cr8HeqqFpsbR4zvJ4mJdJwL4bXyNHjcXoxIWEMdBcmxKWQwiu
Mtyd1K3GbRWtD2zsUGGGPLd1kGtE1d1WwRH+bgeAhZOKNNrpOCGsznPOwSZOlC+b
grUGeu8hOoB5icL95QQlHKiyKJEfoZG2gurOZCHv2gyvvwla4p9b9g+/z5HTl3/x
JZuLXxAW+6iSERM4yzICA2lvnv4qsFbHSfMqm8buopgl0qDA88QDmeGU4/WVKAfs
2zE6JXnBRciKHnU5
-----END CERTIFICATE-----
