Certificate:
    Data:
        Version: 3 (0x2)
        Serial Number: 11 (0xb)
    Signature Algorithm: sha256WithRSAEncryption
        Issuer: C=US, O=arc-test, CN=localhost
        Validity
            Not Before: Jan 23 17:54:52 2023 GMT
            Not After : Jun  9 17:54:52 2050 GMT
        Subject: C=US, O=actions-runner-controller, OU=actions-runner-controller test
        Subject Public Key Info:
            Public Key Algorithm: rsaEncryption
                RSA Public-Key: (2048 bit)
                Modulus:
                    00:a6:0c:db:6f:e7:58:d8:32:8c:f9:8b:2b:93:e9:
                    7b:82:e8:6f:b6:06:3d:ab:9c:2c:ee:9a:85:d1:db:
                    98:90:8d:b3:9b:23:16:10:34:a4:5c:a3:e8:38:38:
                    a2:99:88:68:97:80:ab:ed:ce:a1:82:d3:b3:65:2d:
                    3e:5b:89:15:76:10:cb:a6:4f:e6:83:d6:b8:65:32:
                    c9:aa:7d:83:20:78:fd:43:41:be:10:d2:6b:10:d8:
                    f1:3c:77:f2:91:77:17:b3:62:c0:81:12:df:7e:57:
                    b8:83:86:df:9c:95:50:0b:2c:d9:36:20:9b:96:9a:
                    93:9d:24:b2:10:56:b5:00:4b:6b:c6:ae:ab:d8:4f:
                    db:62:30:66:d7:c1:b8:5b:10:4e:58:7b:a4:b9:8b:
                    19:e4:52:a5:83:34:ff:64:d7:8b:a0:c1:3d:58:3a:
                    78:fb:0c:4a:00:41:92:9c:48:65:3e:ff:d2:af:a9:
                    ec:1b:13:f3:e6:2f:4d:3c:11:6a:83:7e:f7:a0:35:
                    b5:ec:dc:5e:ad:ee:cc:ea:5e:a8:32:a3:6d:15:bb:
                    10:69:f2:3b:26:6c:b8:ae:b8:07:06:b0:df:d2:cd:
                    52:95:a6:37:71:e0:cf:c1:7a:53:f6:db:47:5d:97:
                    bd:0e:a6:fa:31:21:04:42:f2:f8:21:61:b4:4c:41:
                    8c:27
                Exponent: 65537 (0x10001)
        X509v3 extensions:
            X509v3 Authority Key Identifier: 
                DirName:/C=US/O=arc-test/CN=localhost
                serial:08

            X509v3 Basic Constraints: 
                CA:FALSE
            X509v3 Key Usage: 
                Digital Signature, Non Repudiation, Key Encipherment, Data Encipherment
            X509v3 Subject Alternative Name: 
                IP Address:127.0.0.1, DNS:localhost
    Signature Algorithm: sha256WithRSAEncryption
         73:70:5c:40:cf:48:a9:c0:8b:50:c8:10:b5:3c:57:18:fd:ac:
         05:6b:7c:8f:ad:b2:cc:2a:92:b8:70:57:19:88:40:b6:b1:d9:
         e7:44:7b:44:69:4b:dc:10:20:08:a8:5a:b3:29:3c:ce:42:f8:
         57:04:e4:9b:b6:d8:22:0f:d4:4a:51:76:b8:32:4b:b6:bd:b9:
         10:4a:69:b6:20:f3:77:2b:eb:7b:11:b3:c9:1d:96:a6:0d:9a:
         29:ae:e6:89:91:95:26:29:7a:a9:e9:8f:6e:9c:aa:17:96:e7:
         87:04:84:bb:61:38:a8:d3:f7:2e:ef:ce:49:38:e7:d9:2c:86:
         be:a8:63:98:6a:f2:62:4f:48:1a:ee:d0:3f:9c:33:1e:d2:b3:
         3d:3c:bd:ab:4d:a9:c0:02:d2:ae:01:f4:fb:dd:1d:10:82:08:
         26:d2:06:2c:c1:5a:3c:76:c6:85:b8:c4:22:63:7d:c1:40:c5:
         44:bf:ac:b9:6e:58:ac:5b:5e:5f:34:08:a7:08:88:14:10:3f:
         3d:5d:6e:9c:38:d6:9c:2d:45:88:3f:46:10:15:bd:2f:d5:75:
         5f:cc:cb:f3:e7:56:c2:d9:99:7b:a9:ea:a8:b5:ff:60:35:28:
         b9:0c:6b:13:0b:d9:e0:d1:89:11:9b:4b:26:ad:2e:5a:93:ea:
         56:00:da:a0
-----BEGIN CERTIFICATE-----
MIIDiTCCAnGgAwIBAgIBCzANBgkqhkiG9w0BAQsFADA0MQswCQYDVQQGEwJVUzER
MA8GA1UECgwIYXJjLXRlc3QxEjAQBgNVBAMMCWxvY2FsaG9zdDAgFw0yMzAxMjMx
NzU0NTJaGA8yMDUwMDYwOTE3NTQ1MlowWjELMAkGA1UEBhMCVVMxIjAgBgNVBAoM
GWFjdGlvbnMtcnVubmVyLWNvbnRyb2xsZXIxJzAlBgNVBAsMHmFjdGlvbnMtcnVu
bmVyLWNvbnRyb2xsZXIgdGVzdDCCASIwDQYJKoZIhvcNAQEBBQADggEPADCCAQoC
ggEBAKYM22/nWNgyjPmLK5Ppe4Lob7YGPaucLO6ahdHbmJCNs5sjFhA0pFyj6Dg4
opmIaJeAq+3OoYLTs2UtPluJFXYQy6ZP5oPWuGUyyap9gyB4/UNBvhDSaxDY8Tx3
8pF3F7NiwIES335XuIOG35yVUAss2TYgm5aak50kshBWtQBLa8auq9hP22IwZtfB
uFsQTlh7pLmLGeRSpYM0/2TXi6DBPVg6ePsMSgBBkpxIZT7/0q+p7BsT8+YvTTwR
aoN+96A1tezcXq3uzOpeqDKjbRW7EGnyOyZsuK64Bwaw39LNUpWmN3Hgz8F6U/bb
R12XvQ6m+jEhBELy+CFhtExBjCcCAwEAAaN+MHwwRgYDVR0jBD8wPaE4pDYwNDEL
MAkGA1UEBhMCVVMxETAPBgNVBAoMCGFyYy10ZXN0MRIwEAYDVQQDDAlsb2NhbGhv
c3SCAQgwCQYDVR0TBAIwADALBgNVHQ8EBAMCBPAwGgYDVR0RBBMwEYcEfwAAAYIJ
bG9jYWxob3N0MA0GCSqGSIb3DQEBCwUAA4IBAQBzcFxAz0ipwItQyBC1PFcY/awF
a3yPrbLMKpK4cFcZiEC2sdnnRHtEaUvcECAIqFqzKTzOQvhXBOSbttgiD9RKUXa4
Mku2vbkQSmm2IPN3K+t7EbPJHZamDZopruaJkZUmKXqp6Y9unKoXlueHBIS7YTio
0/cu785JOOfZLIa+qGOYavJiT0ga7tA/nDMe0rM9PL2rTanAAtKuAfT73R0Qgggm
0gYswVo8dsaFuMQiY33BQMVEv6y5blisW15fNAinCIgUED89XW6cONacLUWIP0YQ
Fb0v1XVfzMvz51bC2Zl7qeqotf9gNSi5DGsTC9ng0YkRm0smrS5ak+pWANqg
-----END CERTIFICATE-----
